target datalayout = "e-m:e-p270:32:32-p271:32:32-p272:64:64-i64:64-i128:128-f80:128-n8:16:32:64-S128"
target triple = "x86_64-unknown-linux-gnu"

%"struct.std::thread::_State_impl" = type { %"struct.std::thread::_State", %"struct.std::thread::_Invoker.87" }
%"struct.std::thread::_State" = type { ptr }
%"struct.std::thread::_Invoker.87" = type { %"class.std::tuple.88" }
%"class.std::tuple.88" = type { %"struct.std::_Tuple_impl.89" }
%"struct.std::_Tuple_impl.89" = type { %"struct.std::_Tuple_impl.90", %"struct.std::_Head_base.92" }
%"struct.std::_Tuple_impl.90" = type { %"struct.std::_Head_base.91" }
%"struct.std::_Head_base.91" = type { ptr }
%"struct.std::_Head_base.92" = type { { i64, i64 } }

; Function Attrs: mustprogress nounwind uwtable
define internal noundef nonnull align 8 dereferenceable(8) ptr @"_ZNSt10_Head_baseILm1EPNSt13__future_base17_Async_state_implINSt6thread8_InvokerISt5tupleIJZN6google8protobuf14ForkPipeRunner7TryReadEiPvmE3$_0iS8_mmEEEElEELb0EE7_M_headERSE_"(ptr noundef nonnull align 8 dereferenceable(8) %__b) #6 align 2 {
entry:
  %__b.addr = alloca ptr, align 8
  store ptr %__b, ptr %__b.addr, align 8
  %0 = load ptr, ptr %__b.addr, align 8
  %_M_head_impl = getelementptr inbounds %"struct.std::_Head_base.91", ptr %0, i32 0, i32 0
  ret ptr %_M_head_impl
}

; Function Attrs: mustprogress nounwind uwtable
define internal noundef nonnull align 8 dereferenceable(16) ptr @"_ZNSt10_Head_baseILm0EMNSt13__future_base17_Async_state_implINSt6thread8_InvokerISt5tupleIJZN6google8protobuf14ForkPipeRunner7TryReadEiPvmE3$_0iS8_mmEEEElEEFvvELb0EE7_M_headERSF_"(ptr noundef nonnull align 8 dereferenceable(16) %__b) #6 align 2 {
entry:
  %__b.addr = alloca ptr, align 8
  store ptr %__b, ptr %__b.addr, align 8
  %0 = load ptr, ptr %__b.addr, align 8
  %_M_head_impl = getelementptr inbounds %"struct.std::_Head_base.92", ptr %0, i32 0, i32 0
  ret ptr %_M_head_impl
}

; Function Attrs: mustprogress nounwind uwtable
define internal noundef nonnull align 8 dereferenceable(8) ptr @"_ZNSt11_Tuple_implILm1EJPNSt13__future_base17_Async_state_implINSt6thread8_InvokerISt5tupleIJZN6google8protobuf14ForkPipeRunner7TryReadEiPvmE3$_0iS8_mmEEEElEEEE7_M_headERSE_"(ptr noundef nonnull align 8 dereferenceable(8) %__t) #6 align 2 {
entry:
  %__t.addr = alloca ptr, align 8
  store ptr %__t, ptr %__t.addr, align 8
  %0 = load ptr, ptr %__t.addr, align 8
  %call = call noundef nonnull align 8 dereferenceable(8) ptr @"_ZNSt10_Head_baseILm1EPNSt13__future_base17_Async_state_implINSt6thread8_InvokerISt5tupleIJZN6google8protobuf14ForkPipeRunner7TryReadEiPvmE3$_0iS8_mmEEEElEELb0EE7_M_headERSE_"(ptr noundef nonnull align 8 dereferenceable(8) %0) #3
  ret ptr %call
}

; Function Attrs: mustprogress nounwind uwtable
define internal noundef nonnull align 8 dereferenceable(16) ptr @"_ZNSt11_Tuple_implILm0EJMNSt13__future_base17_Async_state_implINSt6thread8_InvokerISt5tupleIJZN6google8protobuf14ForkPipeRunner7TryReadEiPvmE3$_0iS8_mmEEEElEEFvvEPSC_EE7_M_headERSG_"(ptr noundef nonnull align 8 dereferenceable(24) %__t) #6 align 2 {
entry:
  %__t.addr = alloca ptr, align 8
  store ptr %__t, ptr %__t.addr, align 8
  %0 = load ptr, ptr %__t.addr, align 8
  %add.ptr = getelementptr inbounds i8, ptr %0, i64 8
  %call = call noundef nonnull align 8 dereferenceable(16) ptr @"_ZNSt10_Head_baseILm0EMNSt13__future_base17_Async_state_implINSt6thread8_InvokerISt5tupleIJZN6google8protobuf14ForkPipeRunner7TryReadEiPvmE3$_0iS8_mmEEEElEEFvvELb0EE7_M_headERSF_"(ptr noundef nonnull align 8 dereferenceable(16) %add.ptr) #3
  ret ptr %call
}

; Function Attrs: mustprogress uwtable
define internal void @"_ZSt13__invoke_implIvMNSt13__future_base17_Async_state_implINSt6thread8_InvokerISt5tupleIJZN6google8protobuf14ForkPipeRunner7TryReadEiPvmE3$_0iS8_mmEEEElEEFvvEPSC_JEET_St21__invoke_memfun_derefOT0_OT1_DpOT2_"(ptr noundef nonnull align 8 dereferenceable(16) %__f, ptr noundef nonnull align 8 dereferenceable(8) %__t) #4 {
entry:
  %__f.addr = alloca ptr, align 8
  %__t.addr = alloca ptr, align 8
  store ptr %__f, ptr %__f.addr, align 8
  store ptr %__t, ptr %__t.addr, align 8
  %0 = load ptr, ptr %__t.addr, align 8
  %1 = load ptr, ptr %0, align 8
  %2 = load ptr, ptr %__f.addr, align 8
  %3 = load { i64, i64 }, ptr %2, align 8
  %memptr.adj = extractvalue { i64, i64 } %3, 1
  %4 = getelementptr inbounds i8, ptr %1, i64 %memptr.adj
  %memptr.ptr = extractvalue { i64, i64 } %3, 0
  %5 = and i64 %memptr.ptr, 1
  %memptr.isvirtual = icmp ne i64 %5, 0
  br i1 %memptr.isvirtual, label %memptr.virtual, label %memptr.nonvirtual

memptr.virtual:                                   ; preds = %entry
  %vtable = load ptr, ptr %4, align 8
  %6 = sub i64 %memptr.ptr, 1
  %7 = getelementptr i8, ptr %vtable, i64 %6, !nosanitize !21
  %memptr.virtualfn = load ptr, ptr %7, align 8, !nosanitize !21
  br label %memptr.end

memptr.nonvirtual:                                ; preds = %entry
  %memptr.nonvirtualfn = inttoptr i64 %memptr.ptr to ptr
  br label %memptr.end

memptr.end:                                       ; preds = %memptr.nonvirtual, %memptr.virtual
  %8 = phi ptr [ %memptr.virtualfn, %memptr.virtual ], [ %memptr.nonvirtualfn, %memptr.nonvirtual ]
  call void %8(ptr noundef nonnull align 8 dereferenceable(88) %4)
  ret void
}

; Function Attrs: mustprogress nounwind uwtable
define internal noundef nonnull align 8 dereferenceable(8) ptr @"_ZSt12__get_helperILm1EPNSt13__future_base17_Async_state_implINSt6thread8_InvokerISt5tupleIJZN6google8protobuf14ForkPipeRunner7TryReadEiPvmE3$_0iS8_mmEEEElEEJEERT0_RSt11_Tuple_implIXT_EJSE_DpT1_EE"(ptr noundef nonnull align 8 dereferenceable(8) %__t) #6 {
entry:
  %__t.addr = alloca ptr, align 8
  store ptr %__t, ptr %__t.addr, align 8
  %0 = load ptr, ptr %__t.addr, align 8
  %call = call noundef nonnull align 8 dereferenceable(8) ptr @"_ZNSt11_Tuple_implILm1EJPNSt13__future_base17_Async_state_implINSt6thread8_InvokerISt5tupleIJZN6google8protobuf14ForkPipeRunner7TryReadEiPvmE3$_0iS8_mmEEEElEEEE7_M_headERSE_"(ptr noundef nonnull align 8 dereferenceable(8) %0) #3
  ret ptr %call
}

; Function Attrs: mustprogress nounwind uwtable
define internal noundef nonnull align 8 dereferenceable(16) ptr @"_ZSt12__get_helperILm0EMNSt13__future_base17_Async_state_implINSt6thread8_InvokerISt5tupleIJZN6google8protobuf14ForkPipeRunner7TryReadEiPvmE3$_0iS8_mmEEEElEEFvvEJPSC_EERT0_RSt11_Tuple_implIXT_EJSG_DpT1_EE"(ptr noundef nonnull align 8 dereferenceable(24) %__t) #6 {
entry:
  %__t.addr = alloca ptr, align 8
  store ptr %__t, ptr %__t.addr, align 8
  %0 = load ptr, ptr %__t.addr, align 8
  %call = call noundef nonnull align 8 dereferenceable(16) ptr @"_ZNSt11_Tuple_implILm0EJMNSt13__future_base17_Async_state_implINSt6thread8_InvokerISt5tupleIJZN6google8protobuf14ForkPipeRunner7TryReadEiPvmE3$_0iS8_mmEEEElEEFvvEPSC_EE7_M_headERSG_"(ptr noundef nonnull align 8 dereferenceable(24) %0) #3
  ret ptr %call
}

; Function Attrs: mustprogress uwtable
define internal void @"_ZSt8__invokeIMNSt13__future_base17_Async_state_implINSt6thread8_InvokerISt5tupleIJZN6google8protobuf14ForkPipeRunner7TryReadEiPvmE3$_0iS8_mmEEEElEEFvvEJPSC_EENSt15__invoke_resultIT_JDpT0_EE4typeEOSH_DpOSI_"(ptr noundef nonnull align 8 dereferenceable(16) %__fn, ptr noundef nonnull align 8 dereferenceable(8) %__args) #4 {
entry:
  %__fn.addr = alloca ptr, align 8
  %__args.addr = alloca ptr, align 8
  store ptr %__fn, ptr %__fn.addr, align 8
  store ptr %__args, ptr %__args.addr, align 8
  %0 = load ptr, ptr %__fn.addr, align 8
  %1 = load ptr, ptr %__args.addr, align 8
  call void @"_ZSt13__invoke_implIvMNSt13__future_base17_Async_state_implINSt6thread8_InvokerISt5tupleIJZN6google8protobuf14ForkPipeRunner7TryReadEiPvmE3$_0iS8_mmEEEElEEFvvEPSC_JEET_St21__invoke_memfun_derefOT0_OT1_DpOT2_"(ptr noundef nonnull align 8 dereferenceable(16) %0, ptr noundef nonnull align 8 dereferenceable(8) %1)
  ret void
}

; Function Attrs: mustprogress nounwind uwtable
define internal noundef nonnull align 8 dereferenceable(8) ptr @"_ZSt3getILm1EJMNSt13__future_base17_Async_state_implINSt6thread8_InvokerISt5tupleIJZN6google8protobuf14ForkPipeRunner7TryReadEiPvmE3$_0iS8_mmEEEElEEFvvEPSC_EEONSt13tuple_elementIXT_ES4_IJDpT0_EEE4typeEOSJ_"(ptr noundef nonnull align 8 dereferenceable(24) %__t) #6 {
entry:
  %__t.addr = alloca ptr, align 8
  store ptr %__t, ptr %__t.addr, align 8
  %0 = load ptr, ptr %__t.addr, align 8
  %call = call noundef nonnull align 8 dereferenceable(8) ptr @"_ZSt12__get_helperILm1EPNSt13__future_base17_Async_state_implINSt6thread8_InvokerISt5tupleIJZN6google8protobuf14ForkPipeRunner7TryReadEiPvmE3$_0iS8_mmEEEElEEJEERT0_RSt11_Tuple_implIXT_EJSE_DpT1_EE"(ptr noundef nonnull align 8 dereferenceable(8) %0) #3
  ret ptr %call
}

; Function Attrs: mustprogress nounwind uwtable
define internal noundef nonnull align 8 dereferenceable(16) ptr @"_ZSt3getILm0EJMNSt13__future_base17_Async_state_implINSt6thread8_InvokerISt5tupleIJZN6google8protobuf14ForkPipeRunner7TryReadEiPvmE3$_0iS8_mmEEEElEEFvvEPSC_EEONSt13tuple_elementIXT_ES4_IJDpT0_EEE4typeEOSJ_"(ptr noundef nonnull align 8 dereferenceable(24) %__t) #6 {
entry:
  %__t.addr = alloca ptr, align 8
  store ptr %__t, ptr %__t.addr, align 8
  %0 = load ptr, ptr %__t.addr, align 8
  %call = call noundef nonnull align 8 dereferenceable(16) ptr @"_ZSt12__get_helperILm0EMNSt13__future_base17_Async_state_implINSt6thread8_InvokerISt5tupleIJZN6google8protobuf14ForkPipeRunner7TryReadEiPvmE3$_0iS8_mmEEEElEEFvvEJPSC_EERT0_RSt11_Tuple_implIXT_EJSG_DpT1_EE"(ptr noundef nonnull align 8 dereferenceable(24) %0) #3
  ret ptr %call
}

; Function Attrs: mustprogress uwtable
define internal void @"_ZNSt6thread8_InvokerISt5tupleIJMNSt13__future_base17_Async_state_implINS0_IS1_IJZN6google8protobuf14ForkPipeRunner7TryReadEiPvmE3$_0iS7_mmEEEElEEFvvEPSB_EEE9_M_invokeIJLm0ELm1EEEEvSt12_Index_tupleIJXspT_EEE"(ptr noundef nonnull align 8 dereferenceable(24) %this) #4 align 2 {
entry:
  %this.addr = alloca ptr, align 8
  store ptr %this, ptr %this.addr, align 8
  %this1 = load ptr, ptr %this.addr, align 8
  %_M_t = getelementptr inbounds %"struct.std::thread::_Invoker.87", ptr %this1, i32 0, i32 0
  %call = call noundef nonnull align 8 dereferenceable(16) ptr @"_ZSt3getILm0EJMNSt13__future_base17_Async_state_implINSt6thread8_InvokerISt5tupleIJZN6google8protobuf14ForkPipeRunner7TryReadEiPvmE3$_0iS8_mmEEEElEEFvvEPSC_EEONSt13tuple_elementIXT_ES4_IJDpT0_EEE4typeEOSJ_"(ptr noundef nonnull align 8 dereferenceable(24) %_M_t) #3
  %_M_t2 = getelementptr inbounds %"struct.std::thread::_Invoker.87", ptr %this1, i32 0, i32 0
  %call3 = call noundef nonnull align 8 dereferenceable(8) ptr @"_ZSt3getILm1EJMNSt13__future_base17_Async_state_implINSt6thread8_InvokerISt5tupleIJZN6google8protobuf14ForkPipeRunner7TryReadEiPvmE3$_0iS8_mmEEEElEEFvvEPSC_EEONSt13tuple_elementIXT_ES4_IJDpT0_EEE4typeEOSJ_"(ptr noundef nonnull align 8 dereferenceable(24) %_M_t2) #3
  call void @"_ZSt8__invokeIMNSt13__future_base17_Async_state_implINSt6thread8_InvokerISt5tupleIJZN6google8protobuf14ForkPipeRunner7TryReadEiPvmE3$_0iS8_mmEEEElEEFvvEJPSC_EENSt15__invoke_resultIT_JDpT0_EE4typeEOSH_DpOSI_"(ptr noundef nonnull align 8 dereferenceable(16) %call, ptr noundef nonnull align 8 dereferenceable(8) %call3)
  ret void
}

; Function Attrs: mustprogress uwtable
define internal void @"_ZNSt6thread8_InvokerISt5tupleIJMNSt13__future_base17_Async_state_implINS0_IS1_IJZN6google8protobuf14ForkPipeRunner7TryReadEiPvmE3$_0iS7_mmEEEElEEFvvEPSB_EEEclEv"(ptr noundef nonnull align 8 dereferenceable(24) %this) #4 align 2 {
entry:
  %this.addr = alloca ptr, align 8
  store ptr %this, ptr %this.addr, align 8
  %this1 = load ptr, ptr %this.addr, align 8
  call void @"_ZNSt6thread8_InvokerISt5tupleIJMNSt13__future_base17_Async_state_implINS0_IS1_IJZN6google8protobuf14ForkPipeRunner7TryReadEiPvmE3$_0iS7_mmEEEElEEFvvEPSB_EEE9_M_invokeIJLm0ELm1EEEEvSt12_Index_tupleIJXspT_EEE"(ptr noundef nonnull align 8 dereferenceable(24) %this1)
  ret void
}

; Function Attrs: mustprogress uwtable
define internal void @"_ZNSt6thread11_State_implINS_8_InvokerISt5tupleIJMNSt13__future_base17_Async_state_implINS1_IS2_IJZN6google8protobuf14ForkPipeRunner7TryReadEiPvmE3$_0iS8_mmEEEElEEFvvEPSC_EEEEE6_M_runEv"(ptr noundef nonnull align 8 dereferenceable(32) %this) unnamed_addr #4 align 2 {
entry:
  %this.addr = alloca ptr, align 8
  store ptr %this, ptr %this.addr, align 8
  %this1 = load ptr, ptr %this.addr, align 8
  %_M_func = getelementptr inbounds %"struct.std::thread::_State_impl", ptr %this1, i32 0, i32 1
  call void @"_ZNSt6thread8_InvokerISt5tupleIJMNSt13__future_base17_Async_state_implINS0_IS1_IJZN6google8protobuf14ForkPipeRunner7TryReadEiPvmE3$_0iS7_mmEEEElEEFvvEPSB_EEEclEv"(ptr noundef nonnull align 8 dereferenceable(24) %_M_func)
  ret void
}