; Function Attrs: mustprogress uwtable
define internal void @"_ZNSt6thread11_State_implINS_8_InvokerISt5tupleIJMNSt13__future_base17_Async_state_implINS1_IS2_IJZN6google8protobuf14ForkPipeRunner7TryReadEiPvmE3$_0iS8_mmEEEElEEFvvEPSC_EEEEE6_M_runEv"(ptr nocapture noundef nonnull readonly align 8 dereferenceable(32) %this) unnamed_addr #3 align 2 {
entry:
  %_M_func = getelementptr inbounds i8, ptr %this, i64 8
  %add.ptr.i.i.i.i.i = getelementptr inbounds i8, ptr %this, i64 16
  %call.val.i.i = load i64, ptr %add.ptr.i.i.i.i.i, align 8
  %0 = getelementptr inbounds i8, ptr %this, i64 24
  %call.val1.i.i = load i64, ptr %0, align 8
  %call3.val.i.i = load ptr, ptr %_M_func, align 8
  %1 = getelementptr inbounds i8, ptr %call3.val.i.i, i64 %call.val1.i.i
  %2 = and i64 %call.val.i.i, 1
  %memptr.isvirtual.not.i.i.i.i = icmp eq i64 %2, 0
  br i1 %memptr.isvirtual.not.i.i.i.i, label %memptr.nonvirtual.i.i.i.i, label %memptr.virtual.i.i.i.i

memptr.virtual.i.i.i.i:                           ; preds = %entry
  %vtable.i.i.i.i = load ptr, ptr %1, align 8
  %3 = getelementptr i8, ptr %vtable.i.i.i.i, i64 %call.val.i.i
  %4 = getelementptr i8, ptr %3, i64 -1
  %memptr.virtualfn.i.i.i.i = load ptr, ptr %4, align 8, !nosanitize !52
  br label %"_ZNSt6thread8_InvokerISt5tupleIJMNSt13__future_base17_Async_state_implINS0_IS1_IJZN6google8protobuf14ForkPipeRunner7TryReadEiPvmE3$_0iS7_mmEEEElEEFvvEPSB_EEEclEv.exit"

memptr.nonvirtual.i.i.i.i:                        ; preds = %entry
  %memptr.nonvirtualfn.i.i.i.i = inttoptr i64 %call.val.i.i to ptr
  br label %"_ZNSt6thread8_InvokerISt5tupleIJMNSt13__future_base17_Async_state_implINS0_IS1_IJZN6google8protobuf14ForkPipeRunner7TryReadEiPvmE3$_0iS7_mmEEEElEEFvvEPSB_EEEclEv.exit"

"_ZNSt6thread8_InvokerISt5tupleIJMNSt13__future_base17_Async_state_implINS0_IS1_IJZN6google8protobuf14ForkPipeRunner7TryReadEiPvmE3$_0iS7_mmEEEElEEFvvEPSB_EEEclEv.exit": ; preds = %memptr.virtual.i.i.i.i, %memptr.nonvirtual.i.i.i.i
  %5 = phi ptr [ %memptr.virtualfn.i.i.i.i, %memptr.virtual.i.i.i.i ], [ %memptr.nonvirtualfn.i.i.i.i, %memptr.nonvirtual.i.i.i.i ]
  tail call void %5(ptr noundef nonnull align 8 dereferenceable(88) %1)
  ret void
}